target datalayout = "e-m:e-p270:32:32-p271:32:32-p272:64:64-i64:64-i128:128-f80:128-n8:16:32:64-S128"
target triple = "x86_64-pc-linux-gnu"

%"struct.tbb::detail::d1::intrusive_list_node" = type { ptr, ptr }
%"struct.std::atomic.4" = type { %"struct.std::__atomic_base.5" }
%"struct.std::__atomic_base.5" = type { i32 }
%"struct.tbb::detail::r1::arena_base" = type { %"struct.tbb::detail::d0::padded.11", %"struct.std::atomic.4", %"struct.std::atomic.4", %"struct.std::atomic.4", [4 x i8], %"class.tbb::detail::r1::task_stream", %"class.tbb::detail::r1::task_stream", %"class.tbb::detail::r1::task_stream.15", i32, i32, %"struct.std::atomic", %"class.tbb::detail::r1::atomic_flag", %"class.tbb::detail::r1::observer_list", ptr, ptr, ptr, %"class.tbb::detail::r1::concurrent_monitor", %"class.tbb::detail::r1::arena_co_cache", %"class.tbb::detail::r1::atomic_flag", i32, i32, i32, i32, %"class.tbb::detail::r1::threading_control_client" }
%"struct.tbb::detail::d0::padded.11" = type { %"struct.tbb::detail::d0::padded_base.12" }
%"struct.tbb::detail::d0::padded_base.12" = type { %"struct.tbb::detail::d1::intrusive_list_node", [112 x i8] }
%"class.tbb::detail::r1::task_stream" = type <{ %"struct.std::atomic.13", ptr, i32, [4 x i8] }>
%"struct.std::atomic.13" = type { %"struct.std::__atomic_base.14" }
%"struct.std::__atomic_base.14" = type { i64 }
%"class.tbb::detail::r1::task_stream.15" = type <{ %"struct.std::atomic.13", ptr, i32, [4 x i8] }>
%"struct.std::atomic" = type { %"struct.std::__atomic_base" }
%"struct.std::__atomic_base" = type { i8 }
%"class.tbb::detail::r1::observer_list" = type { %"struct.std::atomic.18", %"struct.std::atomic.18", %"class.tbb::detail::d0::aligned_space", ptr }
%"struct.std::atomic.18" = type { %"struct.std::__atomic_base.19" }
%"struct.std::__atomic_base.19" = type { ptr }
%"class.tbb::detail::d0::aligned_space" = type { [8 x i8] }
%"class.tbb::detail::r1::concurrent_monitor" = type { %"class.tbb::detail::r1::concurrent_monitor_base.base", [4 x i8] }
%"class.tbb::detail::r1::concurrent_monitor_base.base" = type <{ %"class.tbb::detail::r1::concurrent_monitor_mutex", %"class.tbb::detail::r1::circular_doubly_linked_list_with_sentinel", %"struct.std::atomic.4" }>
%"class.tbb::detail::r1::concurrent_monitor_mutex" = type { %"struct.std::atomic.0", %"struct.std::atomic.0" }
%"struct.std::atomic.0" = type { %"struct.std::__atomic_base.1" }
%"struct.std::__atomic_base.1" = type { i32 }
%"class.tbb::detail::r1::circular_doubly_linked_list_with_sentinel" = type { %"struct.std::atomic.13", %"struct.tbb::detail::r1::circular_doubly_linked_list_with_sentinel::base_node" }
%"struct.tbb::detail::r1::circular_doubly_linked_list_with_sentinel::base_node" = type { ptr, ptr }
%"class.tbb::detail::r1::arena_co_cache" = type <{ ptr, i32, i32, %"class.tbb::detail::d1::spin_mutex", [7 x i8] }>
%"class.tbb::detail::d1::spin_mutex" = type { %"struct.std::atomic" }
%"class.tbb::detail::r1::atomic_flag" = type { %"struct.std::atomic.13" }
%"class.tbb::detail::r1::threading_control_client" = type { ptr, ptr }
%"struct.tbb::detail::d1::constraints" = type { i32, i32, i32, i32 }

@_ZN3tbb6detail2r15arenaC1EPNS1_17threading_controlEjjj = unnamed_addr alias void (ptr, ptr, i32, i32, i32), ptr @_ZN3tbb6detail2r15arenaC2EPNS1_17threading_controlEjjj

; Function Attrs: mustprogress nounwind sspstrong uwtable
define linkonce_odr noundef i32 @_ZN3tbb6detail2r13maxIjEET_RKS3_S5_(ptr noundef nonnull align 4 dereferenceable(4) %0, ptr noundef nonnull align 4 dereferenceable(4) %1) #1 comdat {
  %3 = alloca ptr, align 8
  %4 = alloca ptr, align 8
  store ptr %0, ptr %3, align 8, !tbaa !223
  store ptr %1, ptr %4, align 8, !tbaa !223
  %5 = load ptr, ptr %3, align 8, !tbaa !223
  %6 = load i32, ptr %5, align 4, !tbaa !79
  %7 = load ptr, ptr %4, align 8, !tbaa !223
  %8 = load i32, ptr %7, align 4, !tbaa !79
  %9 = icmp ult i32 %6, %8
  br i1 %9, label %10, label %13

10:                                               ; preds = %2
  %11 = load ptr, ptr %4, align 8, !tbaa !223
  %12 = load i32, ptr %11, align 4, !tbaa !79
  br label %16

13:                                               ; preds = %2
  %14 = load ptr, ptr %3, align 8, !tbaa !223
  %15 = load i32, ptr %14, align 4, !tbaa !79
  br label %16

16:                                               ; preds = %13, %10
  %17 = phi i32 [ %12, %10 ], [ %15, %13 ]
  ret i32 %17
}

; Function Attrs: alwaysinline mustprogress nounwind
define internal ptr @memset.inline(ptr nonnull %0, i32 %1, i64 %2) #8 {
  %4 = alloca ptr, align 8
  %5 = alloca i32, align 4
  %6 = alloca i64, align 8
  store ptr %0, ptr %4, align 8, !tbaa !10
  store i32 %1, ptr %5, align 4, !tbaa !79
  store i64 %2, ptr %6, align 8, !tbaa !99
  %7 = load ptr, ptr %4, align 8, !tbaa !10
  %8 = load i32, ptr %5, align 4, !tbaa !79
  %9 = load i64, ptr %6, align 8, !tbaa !99
  %10 = load ptr, ptr %4, align 8, !tbaa !10
  %11 = call i64 @llvm.objectsize.i64.p0(ptr %10, i1 false, i1 true, i1 false)
  %12 = call ptr @__memset_chk(ptr noundef %7, i32 noundef %8, i64 noundef %9, i64 noundef %11) #12
  ret ptr %12
}

; Function Attrs: mustprogress nounwind sspstrong uwtable
define linkonce_odr noundef i32 @_ZN3tbb6detail2r15arena15allocation_sizeEj(i32 noundef %0) #1 comdat align 2 {
  %2 = alloca i32, align 4
  store i32 %0, ptr %2, align 4, !tbaa !79
  %3 = load i32, ptr %2, align 4, !tbaa !79
  %4 = zext i32 %3 to i64
  %5 = mul i64 %4, 512
  %6 = add i64 512, %5
  %7 = trunc i64 %6 to i32
  ret i32 %7
}

; Function Attrs: mustprogress sspstrong uwtable
define linkonce_odr noundef i32 @_ZN3tbb6detail2r15arena15num_arena_slotsEjj(i32 noundef %0, i32 noundef %1) #2 comdat align 2 {
  %3 = alloca i32, align 4
  %4 = alloca i32, align 4
  %5 = alloca i32, align 4
  store i32 %0, ptr %3, align 4, !tbaa !79
  store i32 %1, ptr %4, align 4, !tbaa !79
  %6 = load i32, ptr %4, align 4, !tbaa !79
  %7 = icmp eq i32 %6, 0
  call void @llvm.lifetime.start.p0(i64 4, ptr %5) #12
  br i1 %7, label %8, label %10

8:                                                ; preds = %2
  %9 = load i32, ptr %3, align 4, !tbaa !79
  br label %12

10:                                               ; preds = %2
  store i32 2, ptr %5, align 4, !tbaa !79
  %11 = call noundef i32 @_ZN3tbb6detail2r13maxIjEET_RKS3_S5_(ptr noundef nonnull align 4 dereferenceable(4) %5, ptr noundef nonnull align 4 dereferenceable(4) %3)
  br label %12

12:                                               ; preds = %10, %8
  %13 = phi i32 [ %9, %8 ], [ %11, %10 ]
  call void @llvm.lifetime.end.p0(i64 4, ptr %5) #12
  ret i32 %13
}

; Function Attrs: mustprogress sspstrong uwtable
define noundef nonnull align 128 dereferenceable(768) ptr @_ZN3tbb6detail2r15arena14allocate_arenaEPNS1_17threading_controlEjjj(ptr noundef %0, i32 noundef %1, i32 noundef %2, i32 noundef %3) #2 align 2 {
  %5 = alloca ptr, align 8
  %6 = alloca i32, align 4
  %7 = alloca i32, align 4
  %8 = alloca i32, align 4
  %9 = alloca i64, align 8
  %10 = alloca ptr, align 8
  store ptr %0, ptr %5, align 8, !tbaa !94
  store i32 %1, ptr %6, align 4, !tbaa !79
  store i32 %2, ptr %7, align 4, !tbaa !79
  store i32 %3, ptr %8, align 4, !tbaa !79
  call void @llvm.lifetime.start.p0(i64 8, ptr %9) #12
  %11 = load i32, ptr %6, align 4, !tbaa !79
  %12 = load i32, ptr %7, align 4, !tbaa !79
  %13 = call noundef i32 @_ZN3tbb6detail2r15arena15num_arena_slotsEjj(i32 noundef %11, i32 noundef %12)
  %14 = call noundef i32 @_ZN3tbb6detail2r15arena15allocation_sizeEj(i32 noundef %13)
  %15 = sext i32 %14 to i64
  store i64 %15, ptr %9, align 8, !tbaa !99
  call void @llvm.lifetime.start.p0(i64 8, ptr %10) #12
  %16 = load i64, ptr %9, align 8, !tbaa !99
  %17 = call noundef ptr @_ZN3tbb6detail2r122cache_aligned_allocateEm(i64 noundef %16)
  store ptr %17, ptr %10, align 8, !tbaa !197
  %18 = load ptr, ptr %10, align 8, !tbaa !197
  %19 = load i64, ptr %9, align 8, !tbaa !99
  %20 = call ptr @memset.inline(ptr noundef %18, i32 noundef 0, i64 noundef %19) #12
  %21 = load ptr, ptr %10, align 8, !tbaa !197
  %22 = load i32, ptr %6, align 4, !tbaa !79
  %23 = load i32, ptr %7, align 4, !tbaa !79
  %24 = call noundef i32 @_ZN3tbb6detail2r15arena15num_arena_slotsEjj(i32 noundef %22, i32 noundef %23)
  %25 = zext i32 %24 to i64
  %26 = mul i64 %25, 128
  %27 = getelementptr inbounds nuw i8, ptr %21, i64 %26
  %28 = load ptr, ptr %5, align 8, !tbaa !94
  %29 = load i32, ptr %6, align 4, !tbaa !79
  %30 = load i32, ptr %7, align 4, !tbaa !79
  %31 = load i32, ptr %8, align 4, !tbaa !79
  call void @_ZN3tbb6detail2r15arenaC1EPNS1_17threading_controlEjjj(ptr noundef nonnull align 128 dereferenceable(768) %27, ptr noundef %28, i32 noundef %29, i32 noundef %30, i32 noundef %31)
  call void @llvm.lifetime.end.p0(i64 8, ptr %10) #12
  call void @llvm.lifetime.end.p0(i64 8, ptr %9) #12
  ret ptr %27
}

; Function Attrs: mustprogress sspstrong uwtable
define noundef nonnull align 128 dereferenceable(768) ptr @_ZN3tbb6detail2r15arena6createEPNS1_17threading_controlEjjjNS0_2d111constraintsE(ptr noundef %0, i32 noundef %1, i32 noundef %2, i32 noundef %3, i64 %4, i64 %5) #2 align 2 {
  %7 = alloca %"struct.tbb::detail::d1::constraints", align 4
  %8 = alloca ptr, align 8
  %9 = alloca i32, align 4
  %10 = alloca i32, align 4
  %11 = alloca i32, align 4
  %12 = alloca ptr, align 8
  %13 = alloca %"class.tbb::detail::r1::threading_control_client", align 8
  %14 = alloca %"class.tbb::detail::r1::threading_control_client", align 8
  %15 = getelementptr inbounds nuw { i64, i64 }, ptr %7, i32 0, i32 0
  store i64 %4, ptr %15, align 4
  %16 = getelementptr inbounds nuw { i64, i64 }, ptr %7, i32 0, i32 1
  store i64 %5, ptr %16, align 4
  store ptr %0, ptr %8, align 8, !tbaa !94
  store i32 %1, ptr %9, align 4, !tbaa !79
  store i32 %2, ptr %10, align 4, !tbaa !79
  store i32 %3, ptr %11, align 4, !tbaa !79
  call void @llvm.lifetime.start.p0(i64 8, ptr %12) #12
  %17 = load ptr, ptr %8, align 8, !tbaa !94
  %18 = load i32, ptr %9, align 4, !tbaa !79
  %19 = load i32, ptr %10, align 4, !tbaa !79
  %20 = load i32, ptr %11, align 4, !tbaa !79
  %21 = call noundef nonnull align 128 dereferenceable(768) ptr @_ZN3tbb6detail2r15arena14allocate_arenaEPNS1_17threading_controlEjjj(ptr noundef %17, i32 noundef %18, i32 noundef %19, i32 noundef %20)
  store ptr %21, ptr %12, align 8, !tbaa !43
  call void @llvm.lifetime.start.p0(i64 16, ptr %13) #12
  %22 = load ptr, ptr %8, align 8, !tbaa !94
  %23 = load ptr, ptr %12, align 8, !tbaa !43
  %24 = call { ptr, ptr } @_ZN3tbb6detail2r117threading_control13create_clientERNS1_5arenaE(ptr noundef nonnull align 8 dereferenceable(16) %22, ptr noundef nonnull align 128 dereferenceable(768) %23)
  %25 = getelementptr inbounds nuw { ptr, ptr }, ptr %13, i32 0, i32 0
  %26 = extractvalue { ptr, ptr } %24, 0
  store ptr %26, ptr %25, align 8
  %27 = getelementptr inbounds nuw { ptr, ptr }, ptr %13, i32 0, i32 1
  %28 = extractvalue { ptr, ptr } %24, 1
  store ptr %28, ptr %27, align 8
  %29 = load ptr, ptr %12, align 8, !tbaa !43
  %30 = getelementptr inbounds nuw %"struct.tbb::detail::r1::arena_base", ptr %29, i32 0, i32 23
  call void @llvm.memcpy.p0.p0.i64(ptr align 128 %30, ptr align 8 %13, i64 16, i1 false), !tbaa.struct !95
  call void @llvm.lifetime.end.p0(i64 16, ptr %13) #12
  %31 = load ptr, ptr %8, align 8, !tbaa !94
  %32 = load ptr, ptr %12, align 8, !tbaa !43
  %33 = getelementptr inbounds nuw %"struct.tbb::detail::r1::arena_base", ptr %32, i32 0, i32 23
  call void @llvm.memcpy.p0.p0.i64(ptr align 8 %14, ptr align 128 %33, i64 16, i1 false), !tbaa.struct !95
  %34 = getelementptr inbounds nuw { ptr, ptr }, ptr %14, i32 0, i32 0
  %35 = load ptr, ptr %34, align 8
  %36 = getelementptr inbounds nuw { ptr, ptr }, ptr %14, i32 0, i32 1
  %37 = load ptr, ptr %36, align 8
  call void @_ZN3tbb6detail2r117threading_control14publish_clientENS1_24threading_control_clientERNS0_2d111constraintsE(ptr noundef nonnull align 8 dereferenceable(16) %31, ptr %35, ptr %37, ptr noundef nonnull align 4 dereferenceable(16) %7)
  %38 = load ptr, ptr %12, align 8, !tbaa !43
  call void @llvm.lifetime.end.p0(i64 8, ptr %12) #12
  ret ptr %38
}