; Function Attrs: mustprogress sspstrong uwtable
define noundef nonnull align 128 dereferenceable(768) ptr @_ZN3tbb6detail2r15arena6createEPNS1_17threading_controlEjjjNS0_2d111constraintsE(ptr noundef %0, i32 noundef %1, i32 noundef %2, i32 noundef %3, i64 %4, i64 %5) local_unnamed_addr #1 align 2 {
  %7 = alloca %"struct.tbb::detail::d1::constraints", align 8
  store i64 %4, ptr %7, align 8
  %8 = getelementptr inbounds nuw i8, ptr %7, i64 8
  store i64 %5, ptr %8, align 8
  %9 = icmp eq i32 %2, 0
  %..i.i.i = tail call i32 @llvm.umax.i32(i32 %1, i32 2)
  %10 = select i1 %9, i32 %1, i32 %..i.i.i
  %11 = shl i32 %10, 9
  %12 = add i32 %11, 512
  %13 = sext i32 %12 to i64
  %14 = tail call noundef ptr @_ZN3tbb6detail2r122cache_aligned_allocateEm(i64 noundef %13)
  tail call void @llvm.memset.p0.i64(ptr noundef nonnull align 1 %14, i8 noundef 0, i64 noundef range(i64 -2147483648, 34359738361) %13, i1 noundef false) #13
  %15 = zext i32 %10 to i64
  %16 = shl nuw nsw i64 %15, 7
  %17 = getelementptr inbounds nuw i8, ptr %14, i64 %16
  tail call void @_ZN3tbb6detail2r15arenaC1EPNS1_17threading_controlEjjj(ptr noundef nonnull align 128 dereferenceable(768) %17, ptr noundef %0, i32 noundef %1, i32 noundef %2, i32 noundef %3)
  %18 = tail call { ptr, ptr } @_ZN3tbb6detail2r117threading_control13create_clientERNS1_5arenaE(ptr noundef nonnull align 8 dereferenceable(16) %0, ptr noundef nonnull align 128 dereferenceable(768) %17)
  %19 = extractvalue { ptr, ptr } %18, 0
  %20 = extractvalue { ptr, ptr } %18, 1
  %21 = getelementptr inbounds nuw i8, ptr %17, i64 384
  store ptr %19, ptr %21, align 128, !tbaa !59
  %.sroa.4.0..sroa_idx = getelementptr inbounds nuw i8, ptr %17, i64 392
  store ptr %20, ptr %.sroa.4.0..sroa_idx, align 8, !tbaa !60
  call void @_ZN3tbb6detail2r117threading_control14publish_clientENS1_24threading_control_clientERNS0_2d111constraintsE(ptr noundef nonnull align 8 dereferenceable(16) %0, ptr %19, ptr %20, ptr noundef nonnull align 4 dereferenceable(16) %7)
  ret ptr %17
}